; Function Attrs: nounwind sspstrong uwtable
define internal fastcc noalias nonnull ptr @pm_source_encoding_node_create(ptr noundef captures(none) %0, ptr noundef readonly captures(none) %1) unnamed_addr #1 {
  %3 = tail call noalias dereferenceable_or_null(24) ptr @calloc(i64 noundef 1, i64 noundef 24) #34
  %4 = icmp eq ptr %3, null
  br i1 %4, label %5, label %pm_node_alloc.exit

5:                                                ; preds = %2
  %6 = load ptr, ptr @stderr, align 8, !tbaa !105
  %7 = tail call i32 (ptr, i32, ptr, ...) @__fprintf_chk(ptr noundef %6, i32 noundef 1, ptr noundef nonnull @.str.94, i32 noundef 24) #31
  tail call void @abort() #35
  unreachable

pm_node_alloc.exit:                               ; preds = %2
  %8 = load i32, ptr %0, align 8, !tbaa !107
  %9 = add i32 %8, 1
  store i32 %9, ptr %0, align 8, !tbaa !107
  %10 = getelementptr inbounds nuw i8, ptr %1, i64 8
  %11 = load ptr, ptr %10, align 8, !tbaa !125
  %12 = getelementptr inbounds nuw i8, ptr %1, i64 16
  %13 = load ptr, ptr %12, align 8, !tbaa !126
  store i16 136, ptr %3, align 8, !tbaa !108
  %.sroa.2.0..sroa_idx = getelementptr inbounds nuw i8, ptr %3, i64 2
  store i16 2, ptr %.sroa.2.0..sroa_idx, align 2, !tbaa !108
  %.sroa.3.0..sroa_idx = getelementptr inbounds nuw i8, ptr %3, i64 4
  store i32 %9, ptr %.sroa.3.0..sroa_idx, align 4, !tbaa !7
  %.sroa.4.0..sroa_idx = getelementptr inbounds nuw i8, ptr %3, i64 8
  store ptr %11, ptr %.sroa.4.0..sroa_idx, align 8, !tbaa !14
  %.sroa.5.0..sroa_idx = getelementptr inbounds nuw i8, ptr %3, i64 16
  store ptr %13, ptr %.sroa.5.0..sroa_idx, align 8, !tbaa !14
  ret ptr %3
}